target datalayout = "e-m:e-p270:32:32-p271:32:32-p272:64:64-i64:64-i128:128-f80:128-n8:16:32:64-S128"
target triple = "x86_64-pc-linux-gnu"

%struct.wtap_dumper = type { ptr, i32, i32, i32, i32, i8, i64, ptr, ptr, ptr, ptr, ptr, ptr, ptr, ptr, ptr, ptr, ptr, ptr, ptr, i32, i32, i32 }

; Function Attrs: null_pointer_is_valid sspstrong uwtable
define i64 @wtap_dump_file_seek(ptr noundef %0, i64 noundef %1, i32 noundef %2, ptr noundef %3) #0 {
  %5 = alloca i64, align 8
  %6 = alloca ptr, align 8
  %7 = alloca i64, align 8
  %8 = alloca i32, align 4
  %9 = alloca ptr, align 8
  store ptr %0, ptr %6, align 8
  store i64 %1, ptr %7, align 8
  store i32 %2, ptr %8, align 4
  store ptr %3, ptr %9, align 8
  %10 = load ptr, ptr %6, align 8
  %11 = getelementptr inbounds nuw %struct.wtap_dumper, ptr %10, i32 0, i32 4
  %12 = load i32, ptr %11, align 4
  %13 = icmp ne i32 %12, 0
  br i1 %13, label %14, label %16

14:                                               ; preds = %4
  %15 = load ptr, ptr %9, align 8
  store i32 -19, ptr %15, align 4
  store i64 -1, ptr %5, align 8
  br label %29

16:                                               ; preds = %4
  %17 = load ptr, ptr %6, align 8
  %18 = getelementptr inbounds nuw %struct.wtap_dumper, ptr %17, i32 0, i32 0
  %19 = load ptr, ptr %18, align 8
  %20 = load i64, ptr %7, align 8
  %21 = load i32, ptr %8, align 4
  %22 = call i32 @fseeko(ptr noundef %19, i64 noundef %20, i32 noundef %21)
  %23 = icmp eq i32 -1, %22
  br i1 %23, label %24, label %28

24:                                               ; preds = %16
  %25 = call ptr @__errno_location() #15
  %26 = load i32, ptr %25, align 4
  %27 = load ptr, ptr %9, align 8
  store i32 %26, ptr %27, align 4
  store i64 -1, ptr %5, align 8
  br label %29

28:                                               ; preds = %16
  store i64 0, ptr %5, align 8
  br label %29

29:                                               ; preds = %28, %24, %14
  %30 = load i64, ptr %5, align 8
  ret i64 %30
}