; Function Attrs: nofree nounwind null_pointer_is_valid sspstrong uwtable
define range(i64 -1, 1) i64 @wtap_dump_file_seek(ptr noundef readonly captures(none) %0, i64 noundef %1, i32 noundef %2, ptr noundef writeonly captures(none) %3) local_unnamed_addr #20 {
  %5 = getelementptr inbounds nuw i8, ptr %0, i64 20
  %6 = load i32, ptr %5, align 4
  %.not = icmp eq i32 %6, 0
  br i1 %.not, label %7, label %.sink.split

7:                                                ; preds = %4
  %8 = load ptr, ptr %0, align 8
  %9 = tail call i32 @fseeko(ptr noundef %8, i64 noundef %1, i32 noundef %2)
  %10 = icmp eq i32 %9, -1
  br i1 %10, label %11, label %14

11:                                               ; preds = %7
  %12 = tail call ptr @__errno_location() #25
  %13 = load i32, ptr %12, align 4
  br label %.sink.split

.sink.split:                                      ; preds = %4, %11
  %.sink = phi i32 [ %13, %11 ], [ -19, %4 ]
  store i32 %.sink, ptr %3, align 4
  br label %14

14:                                               ; preds = %.sink.split, %7
  %.0 = phi i64 [ 0, %7 ], [ -1, %.sink.split ]
  ret i64 %.0
}